target datalayout = "e-m:e-p270:32:32-p271:32:32-p272:64:64-i64:64-i128:128-f80:128-n8:16:32:64-S128"
target triple = "x86_64-pc-linux-gnu"

%struct.raw_mutex_entry = type { ptr, %struct._PySemaphore }
%struct._PySemaphore = type { %union.sem_t }
%union.sem_t = type { i64, [24 x i8] }
%struct._PyRawMutex = type { i64 }

; Function Attrs: inlinehint nounwind uwtable
define internal i32 @_Py_atomic_compare_exchange_uintptr(ptr noundef %0, ptr noundef %1, i64 noundef %2) #2 {
  %4 = alloca ptr, align 8
  %5 = alloca ptr, align 8
  %6 = alloca i64, align 8
  %7 = alloca i64, align 8
  %8 = alloca i8, align 1
  store ptr %0, ptr %4, align 8, !tbaa !30
  store ptr %1, ptr %5, align 8, !tbaa !30
  store i64 %2, ptr %6, align 8, !tbaa !9
  %9 = load ptr, ptr %4, align 8, !tbaa !30
  %10 = load ptr, ptr %5, align 8, !tbaa !30
  %11 = load i64, ptr %6, align 8, !tbaa !9
  store i64 %11, ptr %7, align 8, !tbaa !9
  %12 = load i64, ptr %10, align 8
  %13 = load i64, ptr %7, align 8
  %14 = cmpxchg ptr %9, i64 %12, i64 %13 seq_cst seq_cst, align 8
  %15 = extractvalue { i64, i1 } %14, 0
  %16 = extractvalue { i64, i1 } %14, 1
  br i1 %16, label %18, label %17

17:                                               ; preds = %3
  store i64 %15, ptr %10, align 8
  br label %18

18:                                               ; preds = %17, %3
  %19 = zext i1 %16 to i8
  store i8 %19, ptr %8, align 1, !tbaa !19
  %20 = load i8, ptr %8, align 1, !tbaa !19, !range !21, !noundef !22
  %21 = trunc i8 %20 to i1
  %22 = zext i1 %21 to i32
  ret i32 %22
}

; Function Attrs: inlinehint nounwind uwtable
define internal i64 @_Py_atomic_load_uintptr(ptr noundef %0) #2 {
  %2 = alloca ptr, align 8
  %3 = alloca i64, align 8
  store ptr %0, ptr %2, align 8, !tbaa !30
  %4 = load ptr, ptr %2, align 8, !tbaa !30
  %5 = load atomic i64, ptr %4 seq_cst, align 8
  store i64 %5, ptr %3, align 8
  %6 = load i64, ptr %3, align 8, !tbaa !9
  ret i64 %6
}

; Function Attrs: nounwind uwtable
define hidden void @_PyRawMutex_LockSlow(ptr noundef %0) #0 {
  %2 = alloca ptr, align 8
  %3 = alloca %struct.raw_mutex_entry, align 8
  %4 = alloca i64, align 8
  %5 = alloca i64, align 8
  %6 = alloca i32, align 4
  store ptr %0, ptr %2, align 8, !tbaa !25
  call void @llvm.lifetime.start.p0(i64 40, ptr %3) #7
  %7 = getelementptr inbounds nuw %struct.raw_mutex_entry, ptr %3, i32 0, i32 1
  call void @_PySemaphore_Init(ptr noundef %7)
  call void @llvm.lifetime.start.p0(i64 8, ptr %4) #7
  %8 = load ptr, ptr %2, align 8, !tbaa !25
  %9 = getelementptr inbounds nuw %struct._PyRawMutex, ptr %8, i32 0, i32 0
  %10 = call i64 @_Py_atomic_load_uintptr(ptr noundef %9)
  store i64 %10, ptr %4, align 8, !tbaa !9
  br label %11

11:                                               ; preds = %42, %40, %23, %1
  %12 = load i64, ptr %4, align 8, !tbaa !9
  %13 = and i64 %12, 1
  %14 = icmp eq i64 %13, 0
  br i1 %14, label %15, label %24

15:                                               ; preds = %11
  %16 = load ptr, ptr %2, align 8, !tbaa !25
  %17 = getelementptr inbounds nuw %struct._PyRawMutex, ptr %16, i32 0, i32 0
  %18 = load i64, ptr %4, align 8, !tbaa !9
  %19 = or i64 %18, 1
  %20 = call i32 @_Py_atomic_compare_exchange_uintptr(ptr noundef %17, ptr noundef %4, i64 noundef %19)
  %21 = icmp ne i32 %20, 0
  br i1 %21, label %22, label %23

22:                                               ; preds = %15
  br label %43

23:                                               ; preds = %15
  br label %11

24:                                               ; preds = %11
  %25 = load i64, ptr %4, align 8, !tbaa !9
  %26 = and i64 %25, -2
  %27 = inttoptr i64 %26 to ptr
  %28 = getelementptr inbounds nuw %struct.raw_mutex_entry, ptr %3, i32 0, i32 0
  store ptr %27, ptr %28, align 8, !tbaa !26
  call void @llvm.lifetime.start.p0(i64 8, ptr %5) #7
  %29 = ptrtoint ptr %3 to i64
  %30 = or i64 %29, 1
  store i64 %30, ptr %5, align 8, !tbaa !9
  %31 = load ptr, ptr %2, align 8, !tbaa !25
  %32 = getelementptr inbounds nuw %struct._PyRawMutex, ptr %31, i32 0, i32 0
  %33 = load i64, ptr %5, align 8, !tbaa !9
  %34 = call i32 @_Py_atomic_compare_exchange_uintptr(ptr noundef %32, ptr noundef %4, i64 noundef %33)
  %35 = icmp ne i32 %34, 0
  br i1 %35, label %37, label %36

36:                                               ; preds = %24
  store i32 3, ptr %6, align 4
  br label %40

37:                                               ; preds = %24
  %38 = getelementptr inbounds nuw %struct.raw_mutex_entry, ptr %3, i32 0, i32 1
  %39 = call i32 @_PySemaphore_Wait(ptr noundef %38, i64 noundef -1, i32 noundef 0)
  store i32 0, ptr %6, align 4
  br label %40

40:                                               ; preds = %37, %36
  call void @llvm.lifetime.end.p0(i64 8, ptr %5) #7
  %41 = load i32, ptr %6, align 4
  switch i32 %41, label %45 [
    i32 0, label %42
    i32 3, label %11
  ]

42:                                               ; preds = %40
  br label %11

43:                                               ; preds = %22
  %44 = getelementptr inbounds nuw %struct.raw_mutex_entry, ptr %3, i32 0, i32 1
  call void @_PySemaphore_Destroy(ptr noundef %44)
  call void @llvm.lifetime.end.p0(i64 8, ptr %4) #7
  call void @llvm.lifetime.end.p0(i64 40, ptr %3) #7
  ret void

45:                                               ; preds = %40
  unreachable
}