; Function Attrs: nounwind uwtable
define hidden void @_PyRawMutex_LockSlow(ptr noundef captures(none) %0) local_unnamed_addr #0 {
  %2 = alloca %struct.raw_mutex_entry, align 8
  call void @llvm.lifetime.start.p0(i64 40, ptr nonnull %2) #8
  %3 = getelementptr inbounds nuw i8, ptr %2, i64 8
  call void @_PySemaphore_Init(ptr noundef nonnull %3) #8
  %4 = load atomic i64, ptr %0 seq_cst, align 8
  %5 = ptrtoint ptr %2 to i64
  %6 = or disjoint i64 %5, 1
  br label %.backedge.outer

.backedge.outer:                                  ; preds = %.backedge.outer.backedge, %1
  %.0.ph = phi i64 [ %4, %1 ], [ %.0.ph.be, %.backedge.outer.backedge ]
  %7 = and i64 %.0.ph, 1
  %8 = icmp eq i64 %7, 0
  %9 = and i64 %.0.ph, -2
  %10 = inttoptr i64 %9 to ptr
  br label %.backedge

.backedge:                                        ; preds = %.backedge.outer, %18
  br i1 %8, label %11, label %15

11:                                               ; preds = %.backedge
  %12 = or disjoint i64 %.0.ph, 1
  %13 = cmpxchg ptr %0, i64 %.0.ph, i64 %12 seq_cst seq_cst, align 8
  %14 = extractvalue { i64, i1 } %13, 1
  br i1 %14, label %20, label %.backedge.outer.backedge

.backedge.outer.backedge:                         ; preds = %15, %11
  %.pn = phi { i64, i1 } [ %13, %11 ], [ %16, %15 ]
  %.0.ph.be = extractvalue { i64, i1 } %.pn, 0
  br label %.backedge.outer

15:                                               ; preds = %.backedge
  store ptr %10, ptr %2, align 8, !tbaa !13
  %16 = cmpxchg ptr %0, i64 %.0.ph, i64 %6 seq_cst seq_cst, align 8
  %17 = extractvalue { i64, i1 } %16, 1
  br i1 %17, label %18, label %.backedge.outer.backedge

18:                                               ; preds = %15
  %19 = call i32 @_PySemaphore_Wait(ptr noundef nonnull %3, i64 noundef -1, i32 noundef 0) #8
  br label %.backedge

20:                                               ; preds = %11
  call void @_PySemaphore_Destroy(ptr noundef nonnull %3) #8
  call void @llvm.lifetime.end.p0(i64 40, ptr nonnull %2) #8
  ret void
}